
file-info.o:     file format elf64-x86-64


Disassembly of section .text:

0000000000000000 <main>:
   0:	55                   	push   %rbp
   1:	48 89 e5             	mov    %rsp,%rbp
   4:	bf 00 00 00 00       	mov    $0x0,%edi
   9:	e8 00 00 00 00       	callq  e <main+0xe>
   e:	bf 00 00 00 00       	mov    $0x0,%edi
  13:	e8 00 00 00 00       	callq  18 <main+0x18>
  18:	b8 00 00 00 00       	mov    $0x0,%eax
  1d:	e8 00 00 00 00       	callq  22 <main+0x22>
  22:	8b 05 00 00 00 00    	mov    0x0(%rip),%eax        # 28 <main+0x28>
  28:	89 c6                	mov    %eax,%esi
  2a:	bf 00 00 00 00       	mov    $0x0,%edi
  2f:	b8 00 00 00 00       	mov    $0x0,%eax
  34:	e8 00 00 00 00       	callq  39 <main+0x39>
  39:	8b 05 00 00 00 00    	mov    0x0(%rip),%eax        # 3f <main+0x3f>
  3f:	89 c6                	mov    %eax,%esi
  41:	bf 00 00 00 00       	mov    $0x0,%edi
  46:	b8 00 00 00 00       	mov    $0x0,%eax
  4b:	e8 00 00 00 00       	callq  50 <main+0x50>
  50:	8b 15 00 00 00 00    	mov    0x0(%rip),%edx        # 56 <main+0x56>
  56:	8b 05 00 00 00 00    	mov    0x0(%rip),%eax        # 5c <main+0x5c>
  5c:	29 c2                	sub    %eax,%edx
  5e:	89 d0                	mov    %edx,%eax
  60:	89 c6                	mov    %eax,%esi
  62:	bf 00 00 00 00       	mov    $0x0,%edi
  67:	b8 00 00 00 00       	mov    $0x0,%eax
  6c:	e8 00 00 00 00       	callq  71 <main+0x71>
  71:	8b 05 00 00 00 00    	mov    0x0(%rip),%eax        # 77 <main+0x77>
  77:	89 c6                	mov    %eax,%esi
  79:	bf 00 00 00 00       	mov    $0x0,%edi
  7e:	b8 00 00 00 00       	mov    $0x0,%eax
  83:	e8 00 00 00 00       	callq  88 <main+0x88>
  88:	b8 00 00 00 00       	mov    $0x0,%eax
  8d:	5d                   	pop    %rbp
  8e:	c3                   	retq   

000000000000008f <count_stats>:
  8f:	55                   	push   %rbp
  90:	48 89 e5             	mov    %rsp,%rbp
  93:	48 83 ec 10          	sub    $0x10,%rsp
  97:	c7 45 fc 00 00 00 00 	movl   $0x0,-0x4(%rbp)
  9e:	48 c7 05 00 00 00 00 	movq   $0x0,0x0(%rip)        # a9 <count_stats+0x1a>
  a5:	00 00 00 00 
  a9:	48 8b 05 00 00 00 00 	mov    0x0(%rip),%rax        # b0 <count_stats+0x21>
  b0:	c7 00 00 00 00 00    	movl   $0x0,(%rax)
  b6:	eb 48                	jmp    100 <count_stats+0x71>
  b8:	8b 45 fc             	mov    -0x4(%rbp),%eax
  bb:	89 c6                	mov    %eax,%esi
  bd:	bf 00 00 00 00       	mov    $0x0,%edi
  c2:	b8 00 00 00 00       	mov    $0x0,%eax
  c7:	e8 00 00 00 00       	callq  cc <count_stats+0x3d>
  cc:	48 8b 05 00 00 00 00 	mov    0x0(%rip),%rax        # d3 <count_stats+0x44>
  d3:	8b 10                	mov    (%rax),%edx
  d5:	83 c2 01             	add    $0x1,%edx
  d8:	89 10                	mov    %edx,(%rax)
  da:	83 7d fc 0a          	cmpl   $0xa,-0x4(%rbp)
  de:	75 11                	jne    f1 <count_stats+0x62>
  e0:	8b 05 00 00 00 00    	mov    0x0(%rip),%eax        # e6 <count_stats+0x57>
  e6:	83 c0 01             	add    $0x1,%eax
  e9:	89 05 00 00 00 00    	mov    %eax,0x0(%rip)        # ef <count_stats+0x60>
  ef:	eb 0f                	jmp    100 <count_stats+0x71>
  f1:	8b 05 00 00 00 00    	mov    0x0(%rip),%eax        # f7 <count_stats+0x68>
  f7:	83 c0 01             	add    $0x1,%eax
  fa:	89 05 00 00 00 00    	mov    %eax,0x0(%rip)        # 100 <count_stats+0x71>
 100:	e8 00 00 00 00       	callq  105 <count_stats+0x76>
 105:	89 45 fc             	mov    %eax,-0x4(%rbp)
 108:	83 7d fc ff          	cmpl   $0xffffffff,-0x4(%rbp)
 10c:	75 aa                	jne    b8 <count_stats+0x29>
 10e:	bf 00 00 00 00       	mov    $0x0,%edi
 113:	e8 00 00 00 00       	callq  118 <count_stats+0x89>
 118:	66 0f ef c0          	pxor   %xmm0,%xmm0
 11c:	c9                   	leaveq 
 11d:	c3                   	retq   
